; ModuleID = '32/2512.c'
source_filename = "32/2512.c"
target datalayout = "e-m:e-p270:32:32-p271:32:32-p272:64:64-i64:64-f80:128-n8:16:32:64-S128"
target triple = "x86_64-pc-linux-gnu"

@.str = private unnamed_addr constant [3 x i8] c"%d\00", align 1
@.str.1 = private unnamed_addr constant [5 x i8] c"%s%s\00", align 1
@.str.2 = private unnamed_addr constant [2 x i8] c"\0A\00", align 1

; Function Attrs: noinline nounwind uwtable
define dso_local void @main() #0 {
  %1 = alloca i32, align 4
  %2 = alloca i32, align 4
  %3 = alloca i32, align 4
  %4 = alloca i32, align 4
  %5 = alloca i32, align 4
  %6 = alloca i32, align 4
  %7 = alloca i32, align 4
  %8 = alloca [100 x i8], align 16
  %9 = alloca [100 x i8], align 16
  %10 = alloca [100 x i8], align 16
  %11 = alloca [100 x i32], align 16
  store i32 0, i32* %7, align 4
  %12 = call i32 (i8*, ...) @__isoc99_scanf(i8* getelementptr inbounds ([3 x i8], [3 x i8]* @.str, i64 0, i64 0), i32* %1)
  store i32 1, i32* %2, align 4
  br label %13

13:                                               ; preds = %190, %0
  %14 = load i32, i32* %2, align 4
  %15 = load i32, i32* %1, align 4
  %16 = icmp sle i32 %14, %15
  br i1 %16, label %17, label %193

17:                                               ; preds = %13
  %18 = getelementptr inbounds [100 x i8], [100 x i8]* %8, i64 0, i64 0
  %19 = getelementptr inbounds [100 x i8], [100 x i8]* %9, i64 0, i64 0
  %20 = call i32 (i8*, ...) @__isoc99_scanf(i8* getelementptr inbounds ([5 x i8], [5 x i8]* @.str.1, i64 0, i64 0), i8* %18, i8* %19)
  %21 = getelementptr inbounds [100 x i8], [100 x i8]* %8, i64 0, i64 0
  %22 = call i64 @strlen(i8* %21) #3
  %23 = trunc i64 %22 to i32
  store i32 %23, i32* %5, align 4
  %24 = getelementptr inbounds [100 x i8], [100 x i8]* %9, i64 0, i64 0
  %25 = call i64 @strlen(i8* %24) #3
  %26 = trunc i64 %25 to i32
  store i32 %26, i32* %6, align 4
  store i32 0, i32* %4, align 4
  store i32 1, i32* %3, align 4
  br label %27

27:                                               ; preds = %92, %17
  %28 = load i32, i32* %3, align 4
  %29 = load i32, i32* %6, align 4
  %30 = icmp sle i32 %28, %29
  br i1 %30, label %31, label %95

31:                                               ; preds = %27
  %32 = load i32, i32* %4, align 4
  %33 = load i32, i32* %5, align 4
  %34 = load i32, i32* %3, align 4
  %35 = sub nsw i32 %33, %34
  %36 = sext i32 %35 to i64
  %37 = getelementptr inbounds [100 x i8], [100 x i8]* %8, i64 0, i64 %36
  %38 = load i8, i8* %37, align 1
  %39 = sext i8 %38 to i32
  %40 = add nsw i32 %32, %39
  %41 = load i32, i32* %6, align 4
  %42 = load i32, i32* %3, align 4
  %43 = sub nsw i32 %41, %42
  %44 = sext i32 %43 to i64
  %45 = getelementptr inbounds [100 x i8], [100 x i8]* %9, i64 0, i64 %44
  %46 = load i8, i8* %45, align 1
  %47 = sext i8 %46 to i32
  %48 = sub nsw i32 %40, %47
  %49 = load i32, i32* %5, align 4
  %50 = load i32, i32* %3, align 4
  %51 = sub nsw i32 %49, %50
  %52 = sext i32 %51 to i64
  %53 = getelementptr inbounds [100 x i8], [100 x i8]* %8, i64 0, i64 %52
  %54 = load i8, i8* %53, align 1
  %55 = sext i8 %54 to i32
  %56 = load i32, i32* %4, align 4
  %57 = add nsw i32 %55, %56
  %58 = load i32, i32* %6, align 4
  %59 = load i32, i32* %3, align 4
  %60 = sub nsw i32 %58, %59
  %61 = sext i32 %60 to i64
  %62 = getelementptr inbounds [100 x i8], [100 x i8]* %9, i64 0, i64 %61
  %63 = load i8, i8* %62, align 1
  %64 = sext i8 %63 to i32
  %65 = icmp slt i32 %57, %64
  %66 = zext i1 %65 to i32
  %67 = mul nsw i32 10, %66
  %68 = add nsw i32 %48, %67
  %69 = load i32, i32* %3, align 4
  %70 = sext i32 %69 to i64
  %71 = getelementptr inbounds [100 x i32], [100 x i32]* %11, i64 0, i64 %70
  store i32 %68, i32* %71, align 4
  %72 = load i32, i32* %5, align 4
  %73 = load i32, i32* %3, align 4
  %74 = sub nsw i32 %72, %73
  %75 = sext i32 %74 to i64
  %76 = getelementptr inbounds [100 x i8], [100 x i8]* %8, i64 0, i64 %75
  %77 = load i8, i8* %76, align 1
  %78 = sext i8 %77 to i32
  %79 = load i32, i32* %6, align 4
  %80 = load i32, i32* %3, align 4
  %81 = sub nsw i32 %79, %80
  %82 = sext i32 %81 to i64
  %83 = getelementptr inbounds [100 x i8], [100 x i8]* %9, i64 0, i64 %82
  %84 = load i8, i8* %83, align 1
  %85 = sext i8 %84 to i32
  %86 = sub nsw i32 %78, %85
  %87 = load i32, i32* %4, align 4
  %88 = add nsw i32 %86, %87
  %89 = icmp slt i32 %88, 0
  %90 = zext i1 %89 to i32
  %91 = mul nsw i32 -1, %90
  store i32 %91, i32* %4, align 4
  br label %92

92:                                               ; preds = %31
  %93 = load i32, i32* %3, align 4
  %94 = add nsw i32 %93, 1
  store i32 %94, i32* %3, align 4
  br label %27

95:                                               ; preds = %27
  %96 = load i32, i32* %5, align 4
  %97 = load i32, i32* %6, align 4
  %98 = sub nsw i32 %96, %97
  %99 = sub nsw i32 %98, 1
  %100 = icmp sge i32 %99, 0
  br i1 %100, label %101, label %153

101:                                              ; preds = %95
  %102 = load i32, i32* %6, align 4
  %103 = add nsw i32 %102, 1
  store i32 %103, i32* %3, align 4
  br label %104

104:                                              ; preds = %149, %101
  %105 = load i32, i32* %3, align 4
  %106 = load i32, i32* %5, align 4
  %107 = icmp sle i32 %105, %106
  br i1 %107, label %108, label %152

108:                                              ; preds = %104
  %109 = load i32, i32* %4, align 4
  %110 = load i32, i32* %5, align 4
  %111 = load i32, i32* %3, align 4
  %112 = sub nsw i32 %110, %111
  %113 = sext i32 %112 to i64
  %114 = getelementptr inbounds [100 x i8], [100 x i8]* %8, i64 0, i64 %113
  %115 = load i8, i8* %114, align 1
  %116 = sext i8 %115 to i32
  %117 = add nsw i32 %109, %116
  %118 = sub nsw i32 %117, 48
  %119 = load i32, i32* %5, align 4
  %120 = load i32, i32* %3, align 4
  %121 = sub nsw i32 %119, %120
  %122 = sext i32 %121 to i64
  %123 = getelementptr inbounds [100 x i8], [100 x i8]* %8, i64 0, i64 %122
  %124 = load i8, i8* %123, align 1
  %125 = sext i8 %124 to i32
  %126 = sub nsw i32 %125, 48
  %127 = load i32, i32* %4, align 4
  %128 = add nsw i32 %126, %127
  %129 = icmp slt i32 %128, 0
  %130 = zext i1 %129 to i32
  %131 = mul nsw i32 10, %130
  %132 = add nsw i32 %118, %131
  %133 = load i32, i32* %3, align 4
  %134 = sext i32 %133 to i64
  %135 = getelementptr inbounds [100 x i32], [100 x i32]* %11, i64 0, i64 %134
  store i32 %132, i32* %135, align 4
  %136 = load i32, i32* %5, align 4
  %137 = load i32, i32* %3, align 4
  %138 = sub nsw i32 %136, %137
  %139 = sext i32 %138 to i64
  %140 = getelementptr inbounds [100 x i8], [100 x i8]* %8, i64 0, i64 %139
  %141 = load i8, i8* %140, align 1
  %142 = sext i8 %141 to i32
  %143 = sub nsw i32 %142, 48
  %144 = load i32, i32* %4, align 4
  %145 = add nsw i32 %143, %144
  %146 = icmp slt i32 %145, 0
  %147 = zext i1 %146 to i32
  %148 = mul nsw i32 -1, %147
  store i32 %148, i32* %4, align 4
  br label %149

149:                                              ; preds = %108
  %150 = load i32, i32* %3, align 4
  %151 = add nsw i32 %150, 1
  store i32 %151, i32* %3, align 4
  br label %104

152:                                              ; preds = %104
  br label %153

153:                                              ; preds = %152, %95
  store i32 0, i32* %7, align 4
  %154 = load i32, i32* %5, align 4
  store i32 %154, i32* %3, align 4
  br label %155

155:                                              ; preds = %169, %153
  %156 = load i32, i32* %3, align 4
  %157 = icmp sge i32 %156, 1
  br i1 %157, label %158, label %172

158:                                              ; preds = %155
  %159 = load i32, i32* %3, align 4
  %160 = sext i32 %159 to i64
  %161 = getelementptr inbounds [100 x i32], [100 x i32]* %11, i64 0, i64 %160
  %162 = load i32, i32* %161, align 4
  %163 = icmp eq i32 %162, 0
  br i1 %163, label %164, label %167

164:                                              ; preds = %158
  %165 = load i32, i32* %7, align 4
  %166 = add nsw i32 %165, 1
  store i32 %166, i32* %7, align 4
  br label %168

167:                                              ; preds = %158
  br label %172

168:                                              ; preds = %164
  br label %169

169:                                              ; preds = %168
  %170 = load i32, i32* %3, align 4
  %171 = add nsw i32 %170, -1
  store i32 %171, i32* %3, align 4
  br label %155

172:                                              ; preds = %167, %155
  %173 = load i32, i32* %5, align 4
  %174 = load i32, i32* %7, align 4
  %175 = sub nsw i32 %173, %174
  store i32 %175, i32* %3, align 4
  br label %176

176:                                              ; preds = %185, %172
  %177 = load i32, i32* %3, align 4
  %178 = icmp sge i32 %177, 1
  br i1 %178, label %179, label %188

179:                                              ; preds = %176
  %180 = load i32, i32* %3, align 4
  %181 = sext i32 %180 to i64
  %182 = getelementptr inbounds [100 x i32], [100 x i32]* %11, i64 0, i64 %181
  %183 = load i32, i32* %182, align 4
  %184 = call i32 (i8*, ...) @printf(i8* getelementptr inbounds ([3 x i8], [3 x i8]* @.str, i64 0, i64 0), i32 %183)
  br label %185

185:                                              ; preds = %179
  %186 = load i32, i32* %3, align 4
  %187 = add nsw i32 %186, -1
  store i32 %187, i32* %3, align 4
  br label %176

188:                                              ; preds = %176
  %189 = call i32 (i8*, ...) @printf(i8* getelementptr inbounds ([2 x i8], [2 x i8]* @.str.2, i64 0, i64 0))
  br label %190

190:                                              ; preds = %188
  %191 = load i32, i32* %2, align 4
  %192 = add nsw i32 %191, 1
  store i32 %192, i32* %2, align 4
  br label %13

193:                                              ; preds = %13
  ret void
}

declare dso_local i32 @__isoc99_scanf(i8*, ...) #1

; Function Attrs: nounwind readonly
declare dso_local i64 @strlen(i8*) #2

declare dso_local i32 @printf(i8*, ...) #1


!llvm.module.flags = !{!0}
!llvm.ident = !{!1}

!0 = !{i32 1, !"wchar_size", i32 4}
!1 = !{!"clang version 10.0.0-4ubuntu1 "}
